(lp0
(ibus
Bus
p1
(dp2
S'_Bus__route'
p3
(iroute
Route
p4
(dp5
S'to'
p6
S'kyiv'
p7
sS'name'
p8
S'route #0'
p9
sS'fromR'
p10
S'odesa'
p11
sbsS'mark'
p12
S'mark-0'
p13
sS'type'
p14
g14
sS'id'
p15
ccopy_reg
_reconstructor
p16
(cuuid
UUID
p17
c__builtin__
object
p18
Ntp19
Rp20
(dp21
S'int'
p22
L194483198354205960207878166310044737143L
sbsg8
S'bus #0'
p23
sba(ibus
Bus
p24
(dp25
g3
(iroute
Route
p26
(dp27
g6
g7
sg8
S'route #1'
p28
sg10
g11
sbsg12
S'mark-1'
p29
sg14
g14
sg15
g16
(g17
g18
Ntp30
Rp31
(dp32
g22
L194483198433434122722142503903588687479L
sbsg8
S'bus #1'
p33
sba(ibus
Bus
p34
(dp35
g3
(iroute
Route
p36
(dp37
g6
S'Dnipro'
p38
sg8
I2
sg10
g11
sbsg12
S'mark-2'
p39
sg14
g14
sg15
g16
(g17
g18
Ntp40
Rp41
(dp42
g22
L194483198512662285236406841497132637815L
sbsg8
S'BUSSSSS'
p43
sba(ibus
Bus
p44
(dp45
g3
(iroute
Route
p46
(dp47
g6
g7
sg8
S'route #3'
p48
sg10
g11
sbsg12
S'mark-3'
p49
sg14
g14
sg15
g16
(g17
g18
Ntp50
Rp51
(dp52
g22
L194483198591890447750671179090676588151L
sbsg8
S'bus #3'
p53
sba(ibus
Bus
p54
(dp55
g3
(iroute
Route
p56
(dp57
g6
g7
sg8
S'route #4'
p58
sg10
g11
sbsg12
S'mark-4'
p59
sg14
g14
sg15
g16
(g17
g18
Ntp60
Rp61
(dp62
g22
L194483198671118610264935516684220538487L
sbsg8
S'bus #4'
p63
sba(ibus
Bus
p64
(dp65
g3
(iroute
Route
p66
(dp67
g6
g7
sg8
S'route #5'
p68
sg10
g11
sbsg12
S'mark-5'
p69
sg14
g14
sg15
g16
(g17
g18
Ntp70
Rp71
(dp72
g22
L194483198750346772779199854277764488823L
sbsg8
S'bus #5'
p73
sba(ibus
Bus
p74
(dp75
g3
Nsg12
S'mark-6'
p76
sg14
g14
sg15
g16
(g17
g18
Ntp77
Rp78
(dp79
g22
L194483198829574935293464191871308439159L
sbsg8
S'bus #6'
p80
sba(ibus
Bus
p81
(dp82
g3
Nsg12
S'mark-7'
p83
sg14
g14
sg15
g16
(g17
g18
Ntp84
Rp85
(dp86
g22
L194483198908803097807728529464852389495L
sbsg8
S'bus #7'
p87
sba(ibus
Bus
p88
(dp89
g3
Nsg12
S'mark-10'
p90
sg14
g14
sg15
g16
(g17
g18
Ntp91
Rp92
(dp93
g22
L194483198988031260321992867058396339831L
sbsg8
S'bus #8'
p94
sba(ibus
Bus
p95
(dp96
g3
Nsg12
S'mark-11'
p97
sg14
g14
sg15
g16
(g17
g18
Ntp98
Rp99
(dp100
g22
L194483199067259422836257204651940290167L
sbsg8
S'bus #9'
p101
sba.